; Function Attrs: nofree norecurse nosync nounwind memory(read, inaccessiblemem: none) uwtable
define i32 @Abc_NtkFinCountPairs(ptr noundef readonly captures(none) %0) local_unnamed_addr #15 {
  %2 = getelementptr i8, ptr %0, i64 4
  %.val8 = load i32, ptr %2, align 4, !tbaa !87
  %3 = icmp sgt i32 %.val8, 0
  br i1 %3, label %.lr.ph, label %.critedge

.lr.ph:                                           ; preds = %1
  %4 = getelementptr i8, ptr %0, i64 8
  %.val9 = load ptr, ptr %4, align 8, !tbaa !90
  %wide.trip.count = zext nneg i32 %.val8 to i64
  br label %5

5:                                                ; preds = %.lr.ph, %5
  %indvars.iv = phi i64 [ 0, %.lr.ph ], [ %indvars.iv.next, %5 ]
  %.0710 = phi i32 [ 0, %.lr.ph ], [ %8, %5 ]
  %6 = getelementptr %struct.Vec_Int_t_, ptr %.val9, i64 %indvars.iv, i32 1
  %.val = load i32, ptr %6, align 4, !tbaa !37
  %7 = add i32 %.0710, -1
  %8 = add i32 %7, %.val
  %indvars.iv.next = add nuw nsw i64 %indvars.iv, 1
  %exitcond.not = icmp eq i64 %indvars.iv.next, %wide.trip.count
  br i1 %exitcond.not, label %.critedge, label %5, !llvm.loop !192

.critedge:                                        ; preds = %5, %1
  %.07.lcssa = phi i32 [ 0, %1 ], [ %8, %5 ]
  ret i32 %.07.lcssa
}